target datalayout = "e-m:e-p270:32:32-p271:32:32-p272:64:64-i64:64-i128:128-f80:128-n8:16:32:64-S128"
target triple = "x86_64-unknown-linux-gnu"

%class.btVector3 = type { [4 x float] }
%class.btHingeConstraint = type { %class.btTypedConstraint, [3 x %class.btJacobianEntry], [3 x %class.btJacobianEntry], %class.btTransform, %class.btTransform, float, float, %class.btAngularLimit, float, float, float, float, i8, i8, i8, i8, i8, float, i32, float, float, float, float }
%class.btTypedConstraint = type { ptr, %struct.btTypedObject, i32, %union.anon.0, float, i8, i8, i32, ptr, ptr, float, float, ptr }
%struct.btTypedObject = type { i32 }
%union.anon.0 = type { ptr }
%class.btJacobianEntry = type { %class.btVector3, %class.btVector3, %class.btVector3, %class.btVector3, %class.btVector3, float }
%class.btTransform = type { %class.btMatrix3x3, %class.btVector3 }
%class.btMatrix3x3 = type { [3 x %class.btVector3] }
%class.btAngularLimit = type <{ float, float, float, float, float, float, float, i8, [3 x i8] }>

; Function Attrs: mustprogress nounwind uwtable
define dso_local noundef float @_ZNK17btHingeConstraint8getParamEii(ptr noundef nonnull align 8 dereferenceable(792) %this, i32 noundef %num, i32 noundef %axis) unnamed_addr #1 align 2 {
entry:
  %this.addr = alloca ptr, align 8
  %num.addr = alloca i32, align 4
  %axis.addr = alloca i32, align 4
  %retVal = alloca float, align 4
  store ptr %this, ptr %this.addr, align 8
  store i32 %num, ptr %num.addr, align 4
  store i32 %axis, ptr %axis.addr, align 4
  %this1 = load ptr, ptr %this.addr, align 8
  store float 0.000000e+00, ptr %retVal, align 4
  %0 = load i32, ptr %axis.addr, align 4
  %cmp = icmp eq i32 %0, -1
  br i1 %cmp, label %if.then, label %lor.lhs.false

lor.lhs.false:                                    ; preds = %entry
  %1 = load i32, ptr %axis.addr, align 4
  %cmp2 = icmp eq i32 %1, 5
  br i1 %cmp2, label %if.then, label %if.else

if.then:                                          ; preds = %lor.lhs.false, %entry
  %2 = load i32, ptr %num.addr, align 4
  switch i32 %2, label %sw.default [
    i32 2, label %sw.bb
    i32 4, label %sw.bb3
    i32 3, label %sw.bb4
    i32 1, label %sw.bb5
  ]

sw.bb:                                            ; preds = %if.then
  %m_stopERP = getelementptr inbounds %class.btHingeConstraint, ptr %this1, i32 0, i32 22
  %3 = load float, ptr %m_stopERP, align 4
  store float %3, ptr %retVal, align 4
  br label %sw.epilog

sw.bb3:                                           ; preds = %if.then
  %m_stopCFM = getelementptr inbounds %class.btHingeConstraint, ptr %this1, i32 0, i32 21
  %4 = load float, ptr %m_stopCFM, align 8
  store float %4, ptr %retVal, align 4
  br label %sw.epilog

sw.bb4:                                           ; preds = %if.then
  %m_normalCFM = getelementptr inbounds %class.btHingeConstraint, ptr %this1, i32 0, i32 19
  %5 = load float, ptr %m_normalCFM, align 8
  store float %5, ptr %retVal, align 4
  br label %sw.epilog

sw.bb5:                                           ; preds = %if.then
  %m_normalERP = getelementptr inbounds %class.btHingeConstraint, ptr %this1, i32 0, i32 20
  %6 = load float, ptr %m_normalERP, align 4
  store float %6, ptr %retVal, align 4
  br label %sw.epilog

sw.default:                                       ; preds = %if.then
  br label %sw.epilog

sw.epilog:                                        ; preds = %sw.default, %sw.bb5, %sw.bb4, %sw.bb3, %sw.bb
  br label %if.end

if.else:                                          ; preds = %lor.lhs.false
  br label %if.end

if.end:                                           ; preds = %if.else, %sw.epilog
  %7 = load float, ptr %retVal, align 4
  ret float %7
}