; Function Attrs: mustprogress nofree norecurse nosync nounwind willreturn memory(argmem: read) uwtable
define dso_local noundef float @_ZNK17btHingeConstraint8getParamEii(ptr nocapture noundef nonnull readonly align 8 dereferenceable(792) %this, i32 noundef %num, i32 noundef %axis) unnamed_addr #12 align 2 {
entry:
  switch i32 %axis, label %if.end [
    i32 -1, label %if.then
    i32 5, label %if.then
  ]

if.then:                                          ; preds = %entry, %entry
  switch i32 %num, label %if.end [
    i32 2, label %sw.bb
    i32 4, label %sw.bb3
    i32 3, label %sw.bb4
    i32 1, label %sw.bb5
  ]

sw.bb:                                            ; preds = %if.then
  %m_stopERP = getelementptr inbounds i8, ptr %this, i64 788
  %0 = load float, ptr %m_stopERP, align 4
  br label %if.end

sw.bb3:                                           ; preds = %if.then
  %m_stopCFM = getelementptr inbounds i8, ptr %this, i64 784
  %1 = load float, ptr %m_stopCFM, align 8
  br label %if.end

sw.bb4:                                           ; preds = %if.then
  %m_normalCFM = getelementptr inbounds i8, ptr %this, i64 776
  %2 = load float, ptr %m_normalCFM, align 8
  br label %if.end

sw.bb5:                                           ; preds = %if.then
  %m_normalERP = getelementptr inbounds i8, ptr %this, i64 780
  %3 = load float, ptr %m_normalERP, align 4
  br label %if.end

if.end:                                           ; preds = %entry, %sw.bb, %sw.bb3, %sw.bb4, %sw.bb5, %if.then
  %retVal.0 = phi float [ 0.000000e+00, %if.then ], [ %3, %sw.bb5 ], [ %2, %sw.bb4 ], [ %1, %sw.bb3 ], [ %0, %sw.bb ], [ 0.000000e+00, %entry ]
  ret float %retVal.0
}